(dp0
S'obj_track'
p1
(lp2
F9917.572983391743
aF9805.385104452975
aF9446.389227085094
aF8948.80472546972
aF8902.093624017267
aF8858.545841369998
aF8850.294686876992
aF8844.51440764505
aF8841.871059388905
aF8841.674733766766
aF8841.633015378697
aF8841.634188776105
aF8841.628377228684
aF8841.636145565957
aF8841.62879589242
aF8841.628430808507
aF8841.628385970007
aF8841.628378725594
aF8841.628377487245
aF8841.628377273411
aF8841.628377236424
aF8841.628377230021
aF8841.628377228915
aF8841.628377228728
aF8841.62837722869
aF8841.628377228684
aF8841.628377228684
aF4104.849785088997
aF2982.289349037473
aF2275.1191598422492
aF1999.7246235019588
aF1889.9604941152302
aF1858.3532376883406
aF1852.637448498413
aF1852.2147264270172
aF1852.2077486045723
aF1852.2077391450644
aF1852.2077391448452
aF1852.2077391448452
aF1605.2276995483753
aF1349.7028098155663
aF1204.0536316998264
aF18750.786250350615
aF1094.5888214140168
aF1063.5261604596467
aF1023.9337864674403
aF1022.5034229195438
aF1022.0005056223979
aF1022.0008811616673
aF1021.9998539027595
aF1022.001652715433
aF1021.9997605300478
aF1022.0016594821773
aF1021.9998233043405
aF1021.9997653499013
aF1021.9997612132462
aF1021.9997606571732
aF1021.9997605554696
aF1021.9997605352119
aF1021.9997605310996
aF1021.9997605302622
aF1021.9997605300907
aF1021.9997605300562
aF1021.999760530049
aF1021.9997605300478
aF1011.6322880632981
aF983.515187014307
aF975.0008140456029
aF969.5664830587209
aF966.0207699277205
aF964.8970956945839
aF962.7631292676191
aF962.0421633477351
aF960.821104834409
aF960.5121484347995
aF960.2196925409727
aF960.04887865536
aF959.788885500259
aF959.6541820283325
aF959.5248156909191
aF959.3884182421
aF959.3645393279919
aF959.2916182193499
aF959.2729545218157
aF959.2281063623752
aF959.1976941892345
aF959.2431983171299
aF959.1911679558187
aF959.1805912714459
aF959.1753376979154
aF959.1753376979154
aF957.3995058772387
aF941.020720841763
aF940.0375845950916
aF939.9275937970689
aF939.9271689237157
aF939.9271687709837
aF939.9271687709837
aF1011.2725471828819
aF914.3168571246779
aF913.6260646913798
aF911.7243103497934
aF910.5012412125383
aF910.2196715066331
aF910.1929269438004
aF910.1933000617597
aF910.1929167539478
aF910.1934163402866
aF910.1929409291332
aF910.1929197247807
aF910.1929172443414
aF910.1929168402105
aF910.1929167693016
aF910.1929167566873
aF910.1929167544364
aF910.1929167540354
aF910.1929167539638
aF910.1929167539503
aF910.1929167539489
aF910.1929167539485
aF910.1929167539483
aF910.1929167539483
aF910.1929167539478
aF910.1929167539478
aF903.8145720457824
aF901.6315839363261
aF899.9076020481102
aF899.5034246574689
aF898.7738104550382
aF898.5122178939795
aF898.1926364658503
aF898.0465743348527
aF897.9152600004684
aF897.9031765287713
aF897.8352257943701
aF897.7364853450791
aF897.6903013428242
aF897.6490787630347
aF897.6349545157232
aF897.6022881254042
aF897.5902046187397
aF897.5735872778139
aF897.5507998396007
aF897.5720297372245
aF897.5415064261898
aF897.5242330112824
aF897.5174984084142
aF897.5112682158002
aF897.512303223054
aF897.5112682158002
aF918.5936760347909
aF886.5250700513242
aF886.4756161733139
aF886.4730736736761
aF886.4730732268637
aF886.4730732268598
aF886.4730732268598
aF1187.3097410880503
aF874.9705164354069
aF874.7796726062495
aF874.3189091542058
aF873.5604009829558
aF872.8982295509123
aF872.8192155877905
aF872.8181466035218
aF872.817916636002
aF872.8178567284335
aF872.8178549731495
aF872.8178549663237
aF872.8178549663237
aF871.1878211075812
aF869.2068190494855
aF868.4587437479807
aF867.9436362242288
aF867.3095584697961
aF867.7723144537001
aF867.1500312487997
aF866.9009615024496
aF866.7750916773261
aF866.7290043659301
aF866.6877394698629
aF866.6547754984713
aF866.5922789973934
aF866.5537344232989
aF866.5601341360303
aF866.5327474529638
aF866.5197720673714
aF866.5124180432413
aF866.5034791132697
aF866.4924722841787
aF866.4847687019907
aF866.4757249445751
aF866.4821292348145
aF866.4740141052492
aF866.4721472710581
aF866.4721472710581
aF926.7210013975653
aF863.5858798522577
aF863.5622350881619
aF863.5619665566123
aF863.5619665349767
aF863.5619665349767
aF1613.7734851550101
aF861.7465419687129
aF859.7749570969286
aF859.7273436093618
aF859.5848455917314
aF859.1700079875752
aF858.6000992800581
aF858.4589947109898
aF858.4591250594773
aF858.4589177809785
aF858.4594962766671
aF858.4589179586953
aF858.4589136471598
aF858.4589133109348
aF858.459498841742
aF858.4589353842907
aF858.4589154540535
aF858.4589136553356
aF858.4589133758819
aF858.4589133236325
aF858.4589133134306
aF858.458913311426
aF858.4589133110329
aF858.458913310954
aF858.4589133109346
aF858.4589133109346
aF864.8518605688304
aF857.4432197282963
aF857.116251267201
aF856.8032741081204
aF856.37868760806
aF856.3335140069263
aF856.1720370988343
aF856.1012946564725
aF856.0362977765202
aF855.9798106603515
aF855.9614122427168
aF855.9376250424684
aF855.9295981968188
aF855.9187920825836
aF855.9074169790572
aF855.8991648004135
aF855.8931897514608
aF855.8900550033962
aF855.8849652502225
aF855.8868437980949
aF855.8799060921167
aF855.8725860595833
aF855.8699560104629
aF855.8685113937722
aF855.868225650547
aF855.868225650547
aF942.804458560103
aF855.355637732651
aF855.3514991888418
aF855.351491599368
aF855.3514915992627
aF855.3514915992627
aF1888.9165881458757
aF858.6074199546488
aF854.1849842112705
aF854.1671108838478
aF854.1041016839988
aF853.7311470878874
aF853.4981007041165
aF853.4423220789672
aF853.4412613957485
aF853.4410029229643
aF853.4409186307117
aF853.4409151469082
aF853.4409150994602
aF853.4409150994602
aF869.2888960749896
aF853.01478104536
aF852.8905338500349
aF852.7989663325893
aF852.6145015934345
aF852.5902112659998
aF852.5383446952537
aF852.4939835349062
aF852.4612411547125
aF852.4298260304802
aF852.4155645203169
aF852.4096202263935
aF852.4048590768257
aF852.4024050137401
aF852.3996628036406
aF852.3952282967383
aF852.3897835340991
aF852.3944347359444
aF852.3873677152765
aF852.384251667294
aF852.3818570026909
aF852.3785980903768
aF852.3788126516514
aF852.3771307810363
aF852.3738040455238
aF852.3738040455238
aF951.3825029636618
aF852.2863264147295
aF852.2856940417222
aF852.285693851258
aF852.2856938512576
aF852.2856938512576
aF1967.0845010090648
aF857.3507123456543
aF851.899570550826
aF851.894352103172
aF851.8777271961683
aF851.8051425286977
aF851.683627288689
aF851.612532193145
aF851.6034581694315
aF851.6026996757272
aF851.6024628082444
aF851.6024408286388
aF851.6024401848165
aF851.6024402051174
aF851.6024401848196
aF851.6024401848165
aF851.6024401848165
aF851.6024401848172
aF851.6024401848165
aF851.6024401848165
aF851.6024401848327
aF851.6024401848165
aF851.6024401848165
aF851.6024401848316
aF851.6024401848165
aF851.6024401848165
aF876.055399320204
aF851.4431568109076
aF851.3888726437483
aF851.3530177972563
aF851.2839580575311
aF851.2686521389336
aF851.2487649768975
aF851.2307813359085
aF851.2230180449063
aF851.2184188468764
aF851.2142797448228
aF851.2123621766435
aF851.206710524682
aF851.2075077220243
aF851.2042572439203
aF851.2029319084074
aF851.2018787743802
aF851.200018233737
aF851.1966203316018
aF851.2024276807424
aF851.1957741989193
aF851.1929296445815
aF851.1907691423906
aF851.1887583703384
aF851.1901129133729
aF851.1887583703384
aF955.522418994649
aF851.1756123985076
aF851.1755242328146
aF851.1755242288878
aF851.1755242288878
aF1999.398788896328
aF856.9458772994036
aF851.0383774728556
aF851.0370976495411
aF851.0233396079786
aF851.0038846118546
aF850.9722245785015
aF850.9491171242395
aF850.9466296783369
aF850.9462708269738
aF850.9461708445415
aF850.9461662020851
aF850.9461661551198
aF850.9461661551198
aF881.1817215682953
aF850.8923601250372
aF850.8723150553047
aF850.8571735790392
aF850.8334541201175
aF850.8269288458042
aF850.8201235036628
aF850.8141877925322
aF850.8093513069498
aF850.8043710187638
aF850.8022248614218
aF850.8004730878504
aF850.7985965452579
aF850.7957621946406
aF850.7948889166647
aF850.7946063510944
aF850.793013704831
aF850.7915763111314
aF850.7901088408133
aF850.7898726773657
aF850.7880611139227
aF850.7875693787258
aF850.787041815026
aF850.7864919168677
aF850.7859507285765
aF850.7859507285765
aF957.1638339763969
aF850.7838551827103
aF850.7838415969251
aF850.7838415968295
aF850.7838415968295
aF2019.0128908197205
aF856.8718899741526
aF850.7346077770652
aF850.7343543152641
aF850.7326192825697
aF850.7295002242216
aF850.7231356920666
aF850.7161643045652
aF850.7125296187832
aF850.7118322179945
aF850.7116404270605
aF850.7116112475824
aF850.7116104244351
aF850.711610437823
aF850.7116104244448
aF850.7116104244351
aF850.7116104244351
aF850.711610424444
aF850.7116104244351
aF850.7116104244351
aF850.7116104243985
aF850.7116104243985
aF850.7116104243985
aF850.7116104244496
aF850.7116104243985
aF850.7116104243985
aF884.1640031671695
aF850.6922032648948
aF850.6843058665386
aF850.6773893077188
aF850.6687737950772
aF850.6653297728359
aF850.6617198427724
aF850.6586674215808
aF850.6572450444719
aF850.6575793439479
aF850.6565102317282
aF850.6563991240303
aF850.6561495466848
aF850.6554547641097
aF850.6539525676457
aF850.6527030416187
aF850.6529827549567
aF850.6518012999744
aF850.6508404806247
aF850.6500950383863
aF850.6494280483021
aF850.6487931851374
aF850.6488521856377
aF850.648786438877
aF850.6488803779556
aF850.648786438877
aF957.8008322389736
aF850.6483950348387
aF850.6483925316865
aF850.6483925316834
aF850.6483925316834
aF2027.778147793752
aF856.8920976633784
aF850.6306114187578
aF850.630582880642
aF850.6303988546415
aF850.6299542480729
aF850.6289008826614
aF850.6273816763498
aF850.6255470882212
aF850.625453301467
aF850.6254232305223
aF850.62541775863
aF850.6254177039904
aF850.6254177039904
aF883.3295564410964
aF850.6184599434619
aF850.6155908326901
aF850.6127048767676
aF850.6088114931832
aF850.6072416683112
aF850.6049338428206
aF850.6046413630485
aF850.6050045441865
aF850.6046611703745
aF850.6046439069793
aF850.6046417877396
aF850.6046414379842
aF850.6046413764064
aF850.6046413654341
aF850.6046413634746
aF850.6046413631245
aF850.6046413630622
aF850.604641363051
aF850.604641363049
aF850.6046413630482
aF850.6046413630493
aF850.6046413630484
aF850.6046413630481
aF850.6046413630481
aF850.6046413630481
aF957.9618469988773
aF850.6044748529293
aF850.6044737919703
aF850.6044737919698
aF850.6044737919698
aF2039.0390974201243
aF857.0220401778616
aF850.600833725764
aF850.6008472141815
aF850.6008351892017
aF850.600833941016
aF850.6008337592227
aF850.6008337310143
aF850.600833726601
aF850.6008337259001
aF850.6008337258063
aF850.6008337257877
aF850.6008337257675
aF850.6008337257936
aF850.600833725764
aF850.600833725764
aF850.6008337257641
aF850.600833725764
aF850.6008337257654
aF850.600833725764
aF850.600833725764
aF850.600833725764
aF850.600833725764
aF852.6376331713245
aF850.6009378761593
aF850.600833725764
aF887.7330416497327
aF850.5999525684151
aF850.5995402703836
aF850.5985975588333
aF850.5974502870841
aF850.5951177248828
aF850.5930096653927
aF850.5919850030633
aF850.5911379396348
aF850.5904402199131
aF850.5905233763094
aF850.5901962311061
aF850.5895995551722
aF850.5889182657248
aF850.5878922961626
aF850.587586882222
aF850.587395714104
aF850.5872309128904
aF850.5870966433661
aF850.5876459970787
aF850.58710775688
aF850.5870968480585
aF850.5870966010478
aF850.587096692737
aF850.5870965973404
aF850.5870965973404
aF905.7380880349443
aF850.587088650181
aF850.5870886211306
aF850.5870886211306
aF2025.3906253290015
aF856.8829362889013
aF850.5851095667663
aF850.5851100144838
aF850.5851091857803
aF850.5851093504975
aF850.5851090959661
aF850.585109161406
aF850.5851090765229
aF850.5851091048065
aF850.5851090735247
aF850.5851090866754
aF850.5851090739018
aF850.5851090735247
aF850.5850719043934
aF850.5849734136345
aF850.5847204188526
aF850.5844256905067
aF850.5841797531963
aF850.5840172565656
aF850.5839637276204
aF850.5839583701768
aF850.58395827932
aF850.58395827932
aF883.7773790865565
aF850.582237817111
aF850.5816124111152
aF850.5808730665362
aF850.5794872858356
aF850.578497983943
aF850.5786862889644
aF850.5785122505994
aF850.5784997153663
aF850.5784982098277
aF850.5784980137023
aF850.5784979878682
aF850.5784979844608
aF850.5784979840113
aF850.5784979839517
aF850.5784979839441
aF850.5784979839432
aF850.578497983943
aF850.5784979839431
aF850.5784979839428
aF850.578497983943
aF850.5784979839428
aF850.5784979839428
aF958.2259370403358
aF850.5784878916047
aF850.578487827638
aF850.578487827638
aF2036.671761941275
aF856.9854919384649
aF850.5781935043157
aF850.5782063276644
aF850.5781942396532
aF850.5781935493296
aF850.5781935071102
aF850.5781935044848
aF850.5781935043436
aF850.5781935043221
aF850.5781935043456
aF850.5781935043157
aF850.5781935043157
aF850.5781935043248
aF850.5781935043157
aF850.5781935043157
aF850.5781935043376
aF850.5781935043157
aF850.5781935043157
aF850.5781935043287
aF850.5781935043157
aF850.5781935043157
aF850.5781935043219
aF850.8976222167713
aF850.5782575396144
aF850.5781935043157
aF910.6142042161861
aF850.5782607633158
aF850.5781830823418
aF850.5782384265059
aF850.578178555407
aF850.5782324300972
aF850.5781728933177
aF850.5782015849243
aF850.5781603514295
aF850.5781458402138
aF850.5780516112134
aF850.577398475941
aF850.5760685763953
aF850.57529254278
aF850.5755579520923
aF850.5746913773462
aF850.5745052914875
aF850.5742810563662
aF850.5740145460798
aF850.5735512212034
aF850.5732195151278
aF850.5731008144495
aF850.5729961430743
aF850.5728186025397
aF850.572453001187
aF850.572453001187
aF905.7309202273404
aF850.5724484316858
aF850.572448414975
aF850.572448414975
aF1903.8544884891971
aF855.9687575925251
aF850.5722180571125
aF850.5722281283571
aF850.5722189346634
aF850.5722181388543
aF850.572218064757
aF850.5722180577761
aF850.572218057164
aF850.572218057091
aF850.5722180571142
aF850.572218057091
aF850.572313300669
aF850.5722255043943
aF850.5722190163292
aF850.572218191654
aF850.5722180762336
aF850.5722180598175
aF850.5722180574897
aF850.5722180571578
aF850.5722180571086
aF850.5722180570825
aF850.5722180571111
aF850.5722180570825
aF850.5727219225905
aF850.5722180570825
aF919.3977255337242
aF850.5718906834531
aF850.5717992857014
aF850.5711504049432
aF850.5710383584791
aF850.5710692645123
aF850.5710858454667
aF850.5710705305106
aF850.5710693672546
aF850.5710692728928
aF850.5710692651961
aF850.5710692645683
aF850.5710692645168
aF850.5710692645129
aF850.5710692645127
aF850.5710692645124
aF850.5710692645123
aF850.5710692645123
aF850.5710692645124
aF850.5710692645123
aF850.5710692645123
aF850.5710692645123
aF850.5710692645123
aF850.5710692645123
aF850.5710692645123
asS'current_iter'
p3
I14
sS'total_evals'
p4
cnumpy.core.multiarray
scalar
p5
(cnumpy
dtype
p6
(S'i8'
p7
I0
I1
tp8
Rp9
(I3
S'<'
p10
NNNI-1
I-1
I0
tp11
bS'\xa3\x02\x00\x00\x00\x00\x00\x00'
p12
tp13
Rp14
sS'delta_s'
p15
g5
(g6
(S'f8'
p16
I0
I1
tp17
Rp18
(I3
S'<'
p19
NNNI-1
I-1
I0
tp20
bS'\xabA\x17\xe3\x1c\xf8F?'
p21
tp22
Rp23
sS'delta_m'
p24
g5
(g18
S'\xe2\x19\x8e\xdb?R\x84?'
p25
tp26
Rp27
sS'obj_fun'
p28
F850.5710383584791
s.