(dp0
S'obj_track'
p1
(lp2
F3518.5690857305017
aF3447.0150279388577
aF3322.012954252614
aF3249.9810511624323
aF3223.4074859918064
aF3219.8156680920783
aF3219.599022551786
aF3219.5488892292306
aF3219.535297916569
aF3219.533359597672
aF3219.5336127559694
aF3219.533374354197
aF3219.533360811657
aF3219.5333597007048
aF3219.533359606439
aF3219.5333595984184
aF3219.533359597734
aF3219.5333595976776
aF3219.53335959767
aF3219.53335959767
aF3219.5333595976745
aF3219.5333595976726
aF3219.53335959767
aF3219.5333595976704
aF3219.53335959767
aF3219.533359597669
aF3219.533359597669
asS'current_iter'
p3
I1
sS'total_evals'
p4
cnumpy.core.multiarray
scalar
p5
(cnumpy
dtype
p6
(S'i8'
p7
I0
I1
tp8
Rp9
(I3
S'<'
p10
NNNI-1
I-1
I0
tp11
bS'\x19\x00\x00\x00\x00\x00\x00\x00'
p12
tp13
Rp14
sS'delta_s'
p15
NsS'delta_m'
p16
NsS'obj_fun'
p17
F3219.533359597669
s.